ARM GAS  C:\Users\PIERRE~1\AppData\Local\Temp\ccrOpoi0.s 			page 1


   1              		.cpu cortex-m0
   2              		.eabi_attribute 20, 1
   3              		.eabi_attribute 21, 1
   4              		.eabi_attribute 23, 3
   5              		.eabi_attribute 24, 1
   6              		.eabi_attribute 25, 1
   7              		.eabi_attribute 26, 1
   8              		.eabi_attribute 30, 1
   9              		.eabi_attribute 34, 0
  10              		.eabi_attribute 18, 4
  11              		.file	"usart.c"
  12              		.text
  13              	.Ltext0:
  14              		.cfi_sections	.debug_frame
  15              		.section	.text.MX_USART1_UART_Init,"ax",%progbits
  16              		.align	1
  17              		.global	MX_USART1_UART_Init
  18              		.arch armv6s-m
  19              		.syntax unified
  20              		.code	16
  21              		.thumb_func
  22              		.fpu softvfp
  24              	MX_USART1_UART_Init:
  25              	.LFB43:
  26              		.file 1 "Core/Src/usart.c"
   1:Core/Src/usart.c **** /**
   2:Core/Src/usart.c ****   ******************************************************************************
   3:Core/Src/usart.c ****   * @file    usart.c
   4:Core/Src/usart.c ****   * @brief   This file provides code for the configuration
   5:Core/Src/usart.c ****   *          of the USART instances.
   6:Core/Src/usart.c ****   ******************************************************************************
   7:Core/Src/usart.c ****   * @attention
   8:Core/Src/usart.c ****   *
   9:Core/Src/usart.c ****   * <h2><center>&copy; Copyright (c) 2021 STMicroelectronics.
  10:Core/Src/usart.c ****   * All rights reserved.</center></h2>
  11:Core/Src/usart.c ****   *
  12:Core/Src/usart.c ****   * This software component is licensed by ST under BSD 3-Clause license,
  13:Core/Src/usart.c ****   * the "License"; You may not use this file except in compliance with the
  14:Core/Src/usart.c ****   * License. You may obtain a copy of the License at:
  15:Core/Src/usart.c ****   *                        opensource.org/licenses/BSD-3-Clause
  16:Core/Src/usart.c ****   *
  17:Core/Src/usart.c ****   ******************************************************************************
  18:Core/Src/usart.c ****   */
  19:Core/Src/usart.c **** 
  20:Core/Src/usart.c **** /* Includes ------------------------------------------------------------------*/
  21:Core/Src/usart.c **** #include "usart.h"
  22:Core/Src/usart.c **** 
  23:Core/Src/usart.c **** /* USER CODE BEGIN 0 */
  24:Core/Src/usart.c **** 
  25:Core/Src/usart.c **** /* USER CODE END 0 */
  26:Core/Src/usart.c **** 
  27:Core/Src/usart.c **** UART_HandleTypeDef huart1;
  28:Core/Src/usart.c **** UART_HandleTypeDef huart2;
  29:Core/Src/usart.c **** 
  30:Core/Src/usart.c **** /* USART1 init function */
  31:Core/Src/usart.c **** 
  32:Core/Src/usart.c **** void MX_USART1_UART_Init(void)
ARM GAS  C:\Users\PIERRE~1\AppData\Local\Temp\ccrOpoi0.s 			page 2


  33:Core/Src/usart.c **** {
  27              		.loc 1 33 1 view -0
  28              		.cfi_startproc
  29              		@ args = 0, pretend = 0, frame = 0
  30              		@ frame_needed = 0, uses_anonymous_args = 0
  31 0000 10B5     		push	{r4, lr}
  32              	.LCFI0:
  33              		.cfi_def_cfa_offset 8
  34              		.cfi_offset 4, -8
  35              		.cfi_offset 14, -4
  34:Core/Src/usart.c **** 
  35:Core/Src/usart.c ****   huart1.Instance = USART1;
  36              		.loc 1 35 3 view .LVU1
  37              		.loc 1 35 19 is_stmt 0 view .LVU2
  38 0002 0C48     		ldr	r0, .L4
  39 0004 0C4B     		ldr	r3, .L4+4
  40 0006 0360     		str	r3, [r0]
  36:Core/Src/usart.c ****   huart1.Init.BaudRate = 115200;
  41              		.loc 1 36 3 is_stmt 1 view .LVU3
  42              		.loc 1 36 24 is_stmt 0 view .LVU4
  43 0008 E123     		movs	r3, #225
  44 000a 5B02     		lsls	r3, r3, #9
  45 000c 4360     		str	r3, [r0, #4]
  37:Core/Src/usart.c ****   huart1.Init.WordLength = UART_WORDLENGTH_8B;
  46              		.loc 1 37 3 is_stmt 1 view .LVU5
  47              		.loc 1 37 26 is_stmt 0 view .LVU6
  48 000e 0023     		movs	r3, #0
  49 0010 8360     		str	r3, [r0, #8]
  38:Core/Src/usart.c ****   huart1.Init.StopBits = UART_STOPBITS_1;
  50              		.loc 1 38 3 is_stmt 1 view .LVU7
  51              		.loc 1 38 24 is_stmt 0 view .LVU8
  52 0012 C360     		str	r3, [r0, #12]
  39:Core/Src/usart.c ****   huart1.Init.Parity = UART_PARITY_NONE;
  53              		.loc 1 39 3 is_stmt 1 view .LVU9
  54              		.loc 1 39 22 is_stmt 0 view .LVU10
  55 0014 0361     		str	r3, [r0, #16]
  40:Core/Src/usart.c ****   huart1.Init.Mode = UART_MODE_TX_RX;
  56              		.loc 1 40 3 is_stmt 1 view .LVU11
  57              		.loc 1 40 20 is_stmt 0 view .LVU12
  58 0016 0C22     		movs	r2, #12
  59 0018 4261     		str	r2, [r0, #20]
  41:Core/Src/usart.c ****   huart1.Init.HwFlowCtl = UART_HWCONTROL_NONE;
  60              		.loc 1 41 3 is_stmt 1 view .LVU13
  61              		.loc 1 41 25 is_stmt 0 view .LVU14
  62 001a 8361     		str	r3, [r0, #24]
  42:Core/Src/usart.c ****   huart1.Init.OverSampling = UART_OVERSAMPLING_16;
  63              		.loc 1 42 3 is_stmt 1 view .LVU15
  64              		.loc 1 42 28 is_stmt 0 view .LVU16
  65 001c C361     		str	r3, [r0, #28]
  43:Core/Src/usart.c ****   huart1.Init.OneBitSampling = UART_ONE_BIT_SAMPLE_DISABLE;
  66              		.loc 1 43 3 is_stmt 1 view .LVU17
  67              		.loc 1 43 30 is_stmt 0 view .LVU18
  68 001e 0362     		str	r3, [r0, #32]
  44:Core/Src/usart.c ****   huart1.AdvancedInit.AdvFeatureInit = UART_ADVFEATURE_NO_INIT;
  69              		.loc 1 44 3 is_stmt 1 view .LVU19
  70              		.loc 1 44 38 is_stmt 0 view .LVU20
  71 0020 4362     		str	r3, [r0, #36]
ARM GAS  C:\Users\PIERRE~1\AppData\Local\Temp\ccrOpoi0.s 			page 3


  45:Core/Src/usart.c ****   if (HAL_HalfDuplex_Init(&huart1) != HAL_OK)
  72              		.loc 1 45 3 is_stmt 1 view .LVU21
  73              		.loc 1 45 7 is_stmt 0 view .LVU22
  74 0022 FFF7FEFF 		bl	HAL_HalfDuplex_Init
  75              	.LVL0:
  76              		.loc 1 45 6 view .LVU23
  77 0026 0028     		cmp	r0, #0
  78 0028 00D1     		bne	.L3
  79              	.L1:
  46:Core/Src/usart.c ****   {
  47:Core/Src/usart.c ****     Error_Handler();
  48:Core/Src/usart.c ****   }
  49:Core/Src/usart.c **** 
  50:Core/Src/usart.c **** }
  80              		.loc 1 50 1 view .LVU24
  81              		@ sp needed
  82 002a 10BD     		pop	{r4, pc}
  83              	.L3:
  47:Core/Src/usart.c ****   }
  84              		.loc 1 47 5 is_stmt 1 view .LVU25
  85 002c FFF7FEFF 		bl	Error_Handler
  86              	.LVL1:
  87              		.loc 1 50 1 is_stmt 0 view .LVU26
  88 0030 FBE7     		b	.L1
  89              	.L5:
  90 0032 C046     		.align	2
  91              	.L4:
  92 0034 00000000 		.word	huart1
  93 0038 00380140 		.word	1073821696
  94              		.cfi_endproc
  95              	.LFE43:
  97              		.section	.text.MX_USART2_UART_Init,"ax",%progbits
  98              		.align	1
  99              		.global	MX_USART2_UART_Init
 100              		.syntax unified
 101              		.code	16
 102              		.thumb_func
 103              		.fpu softvfp
 105              	MX_USART2_UART_Init:
 106              	.LFB44:
  51:Core/Src/usart.c **** /* USART2 init function */
  52:Core/Src/usart.c **** 
  53:Core/Src/usart.c **** void MX_USART2_UART_Init(void)
  54:Core/Src/usart.c **** {
 107              		.loc 1 54 1 is_stmt 1 view -0
 108              		.cfi_startproc
 109              		@ args = 0, pretend = 0, frame = 0
 110              		@ frame_needed = 0, uses_anonymous_args = 0
 111 0000 10B5     		push	{r4, lr}
 112              	.LCFI1:
 113              		.cfi_def_cfa_offset 8
 114              		.cfi_offset 4, -8
 115              		.cfi_offset 14, -4
  55:Core/Src/usart.c **** 
  56:Core/Src/usart.c ****   huart2.Instance = USART2;
 116              		.loc 1 56 3 view .LVU28
 117              		.loc 1 56 19 is_stmt 0 view .LVU29
ARM GAS  C:\Users\PIERRE~1\AppData\Local\Temp\ccrOpoi0.s 			page 4


 118 0002 0C48     		ldr	r0, .L9
 119 0004 0C4B     		ldr	r3, .L9+4
 120 0006 0360     		str	r3, [r0]
  57:Core/Src/usart.c ****   huart2.Init.BaudRate = 9600;
 121              		.loc 1 57 3 is_stmt 1 view .LVU30
 122              		.loc 1 57 24 is_stmt 0 view .LVU31
 123 0008 9623     		movs	r3, #150
 124 000a 9B01     		lsls	r3, r3, #6
 125 000c 4360     		str	r3, [r0, #4]
  58:Core/Src/usart.c ****   huart2.Init.WordLength = UART_WORDLENGTH_8B;
 126              		.loc 1 58 3 is_stmt 1 view .LVU32
 127              		.loc 1 58 26 is_stmt 0 view .LVU33
 128 000e 0023     		movs	r3, #0
 129 0010 8360     		str	r3, [r0, #8]
  59:Core/Src/usart.c ****   huart2.Init.StopBits = UART_STOPBITS_1;
 130              		.loc 1 59 3 is_stmt 1 view .LVU34
 131              		.loc 1 59 24 is_stmt 0 view .LVU35
 132 0012 C360     		str	r3, [r0, #12]
  60:Core/Src/usart.c ****   huart2.Init.Parity = UART_PARITY_NONE;
 133              		.loc 1 60 3 is_stmt 1 view .LVU36
 134              		.loc 1 60 22 is_stmt 0 view .LVU37
 135 0014 0361     		str	r3, [r0, #16]
  61:Core/Src/usart.c ****   huart2.Init.Mode = UART_MODE_TX_RX;
 136              		.loc 1 61 3 is_stmt 1 view .LVU38
 137              		.loc 1 61 20 is_stmt 0 view .LVU39
 138 0016 0C22     		movs	r2, #12
 139 0018 4261     		str	r2, [r0, #20]
  62:Core/Src/usart.c ****   huart2.Init.HwFlowCtl = UART_HWCONTROL_NONE;
 140              		.loc 1 62 3 is_stmt 1 view .LVU40
 141              		.loc 1 62 25 is_stmt 0 view .LVU41
 142 001a 8361     		str	r3, [r0, #24]
  63:Core/Src/usart.c ****   huart2.Init.OverSampling = UART_OVERSAMPLING_16;
 143              		.loc 1 63 3 is_stmt 1 view .LVU42
 144              		.loc 1 63 28 is_stmt 0 view .LVU43
 145 001c C361     		str	r3, [r0, #28]
  64:Core/Src/usart.c ****   huart2.Init.OneBitSampling = UART_ONE_BIT_SAMPLE_DISABLE;
 146              		.loc 1 64 3 is_stmt 1 view .LVU44
 147              		.loc 1 64 30 is_stmt 0 view .LVU45
 148 001e 0362     		str	r3, [r0, #32]
  65:Core/Src/usart.c ****   huart2.AdvancedInit.AdvFeatureInit = UART_ADVFEATURE_NO_INIT;
 149              		.loc 1 65 3 is_stmt 1 view .LVU46
 150              		.loc 1 65 38 is_stmt 0 view .LVU47
 151 0020 4362     		str	r3, [r0, #36]
  66:Core/Src/usart.c ****   if (HAL_UART_Init(&huart2) != HAL_OK)
 152              		.loc 1 66 3 is_stmt 1 view .LVU48
 153              		.loc 1 66 7 is_stmt 0 view .LVU49
 154 0022 FFF7FEFF 		bl	HAL_UART_Init
 155              	.LVL2:
 156              		.loc 1 66 6 view .LVU50
 157 0026 0028     		cmp	r0, #0
 158 0028 00D1     		bne	.L8
 159              	.L6:
  67:Core/Src/usart.c ****   {
  68:Core/Src/usart.c ****     Error_Handler();
  69:Core/Src/usart.c ****   }
  70:Core/Src/usart.c **** 
  71:Core/Src/usart.c **** }
ARM GAS  C:\Users\PIERRE~1\AppData\Local\Temp\ccrOpoi0.s 			page 5


 160              		.loc 1 71 1 view .LVU51
 161              		@ sp needed
 162 002a 10BD     		pop	{r4, pc}
 163              	.L8:
  68:Core/Src/usart.c ****   }
 164              		.loc 1 68 5 is_stmt 1 view .LVU52
 165 002c FFF7FEFF 		bl	Error_Handler
 166              	.LVL3:
 167              		.loc 1 71 1 is_stmt 0 view .LVU53
 168 0030 FBE7     		b	.L6
 169              	.L10:
 170 0032 C046     		.align	2
 171              	.L9:
 172 0034 00000000 		.word	huart2
 173 0038 00440040 		.word	1073759232
 174              		.cfi_endproc
 175              	.LFE44:
 177              		.section	.text.HAL_UART_MspInit,"ax",%progbits
 178              		.align	1
 179              		.global	HAL_UART_MspInit
 180              		.syntax unified
 181              		.code	16
 182              		.thumb_func
 183              		.fpu softvfp
 185              	HAL_UART_MspInit:
 186              	.LVL4:
 187              	.LFB45:
  72:Core/Src/usart.c **** 
  73:Core/Src/usart.c **** void HAL_UART_MspInit(UART_HandleTypeDef* uartHandle)
  74:Core/Src/usart.c **** {
 188              		.loc 1 74 1 is_stmt 1 view -0
 189              		.cfi_startproc
 190              		@ args = 0, pretend = 0, frame = 40
 191              		@ frame_needed = 0, uses_anonymous_args = 0
 192              		.loc 1 74 1 is_stmt 0 view .LVU55
 193 0000 10B5     		push	{r4, lr}
 194              	.LCFI2:
 195              		.cfi_def_cfa_offset 8
 196              		.cfi_offset 4, -8
 197              		.cfi_offset 14, -4
 198 0002 8AB0     		sub	sp, sp, #40
 199              	.LCFI3:
 200              		.cfi_def_cfa_offset 48
 201 0004 0400     		movs	r4, r0
  75:Core/Src/usart.c **** 
  76:Core/Src/usart.c ****   GPIO_InitTypeDef GPIO_InitStruct = {0};
 202              		.loc 1 76 3 is_stmt 1 view .LVU56
 203              		.loc 1 76 20 is_stmt 0 view .LVU57
 204 0006 1422     		movs	r2, #20
 205 0008 0021     		movs	r1, #0
 206 000a 05A8     		add	r0, sp, #20
 207              	.LVL5:
 208              		.loc 1 76 20 view .LVU58
 209 000c FFF7FEFF 		bl	memset
 210              	.LVL6:
  77:Core/Src/usart.c ****   if(uartHandle->Instance==USART1)
 211              		.loc 1 77 3 is_stmt 1 view .LVU59
ARM GAS  C:\Users\PIERRE~1\AppData\Local\Temp\ccrOpoi0.s 			page 6


 212              		.loc 1 77 16 is_stmt 0 view .LVU60
 213 0010 2368     		ldr	r3, [r4]
 214              		.loc 1 77 5 view .LVU61
 215 0012 2A4A     		ldr	r2, .L16
 216 0014 9342     		cmp	r3, r2
 217 0016 04D0     		beq	.L14
  78:Core/Src/usart.c ****   {
  79:Core/Src/usart.c ****   /* USER CODE BEGIN USART1_MspInit 0 */
  80:Core/Src/usart.c **** 
  81:Core/Src/usart.c ****   /* USER CODE END USART1_MspInit 0 */
  82:Core/Src/usart.c ****     /* USART1 clock enable */
  83:Core/Src/usart.c ****     __HAL_RCC_USART1_CLK_ENABLE();
  84:Core/Src/usart.c **** 
  85:Core/Src/usart.c ****     __HAL_RCC_GPIOA_CLK_ENABLE();
  86:Core/Src/usart.c ****     /**USART1 GPIO Configuration
  87:Core/Src/usart.c ****     PA9     ------> USART1_TX
  88:Core/Src/usart.c ****     */
  89:Core/Src/usart.c ****     GPIO_InitStruct.Pin = GPIO_PIN_9;
  90:Core/Src/usart.c ****     GPIO_InitStruct.Mode = GPIO_MODE_AF_OD;
  91:Core/Src/usart.c ****     GPIO_InitStruct.Pull = GPIO_PULLUP;
  92:Core/Src/usart.c ****     GPIO_InitStruct.Speed = GPIO_SPEED_FREQ_HIGH;
  93:Core/Src/usart.c ****     GPIO_InitStruct.Alternate = GPIO_AF1_USART1;
  94:Core/Src/usart.c ****     HAL_GPIO_Init(GPIOA, &GPIO_InitStruct);
  95:Core/Src/usart.c **** 
  96:Core/Src/usart.c ****     /* USART1 interrupt Init */
  97:Core/Src/usart.c ****     HAL_NVIC_SetPriority(USART1_IRQn, 0, 0);
  98:Core/Src/usart.c ****     HAL_NVIC_EnableIRQ(USART1_IRQn);
  99:Core/Src/usart.c ****   /* USER CODE BEGIN USART1_MspInit 1 */
 100:Core/Src/usart.c **** 
 101:Core/Src/usart.c ****   /* USER CODE END USART1_MspInit 1 */
 102:Core/Src/usart.c ****   }
 103:Core/Src/usart.c ****   else if(uartHandle->Instance==USART2)
 218              		.loc 1 103 8 is_stmt 1 view .LVU62
 219              		.loc 1 103 10 is_stmt 0 view .LVU63
 220 0018 294A     		ldr	r2, .L16+4
 221 001a 9342     		cmp	r3, r2
 222 001c 2DD0     		beq	.L15
 223              	.L11:
 104:Core/Src/usart.c ****   {
 105:Core/Src/usart.c ****   /* USER CODE BEGIN USART2_MspInit 0 */
 106:Core/Src/usart.c **** 
 107:Core/Src/usart.c ****   /* USER CODE END USART2_MspInit 0 */
 108:Core/Src/usart.c ****     /* USART2 clock enable */
 109:Core/Src/usart.c ****     __HAL_RCC_USART2_CLK_ENABLE();
 110:Core/Src/usart.c **** 
 111:Core/Src/usart.c ****     __HAL_RCC_GPIOA_CLK_ENABLE();
 112:Core/Src/usart.c ****     /**USART2 GPIO Configuration
 113:Core/Src/usart.c ****     PA2     ------> USART2_TX
 114:Core/Src/usart.c ****     PA15     ------> USART2_RX
 115:Core/Src/usart.c ****     */
 116:Core/Src/usart.c ****     GPIO_InitStruct.Pin = VCP_TX_Pin|VCP_RX_Pin;
 117:Core/Src/usart.c ****     GPIO_InitStruct.Mode = GPIO_MODE_AF_PP;
 118:Core/Src/usart.c ****     GPIO_InitStruct.Pull = GPIO_NOPULL;
 119:Core/Src/usart.c ****     GPIO_InitStruct.Speed = GPIO_SPEED_FREQ_HIGH;
 120:Core/Src/usart.c ****     GPIO_InitStruct.Alternate = GPIO_AF1_USART2;
 121:Core/Src/usart.c ****     HAL_GPIO_Init(GPIOA, &GPIO_InitStruct);
 122:Core/Src/usart.c **** 
ARM GAS  C:\Users\PIERRE~1\AppData\Local\Temp\ccrOpoi0.s 			page 7


 123:Core/Src/usart.c ****   /* USER CODE BEGIN USART2_MspInit 1 */
 124:Core/Src/usart.c **** 
 125:Core/Src/usart.c ****   /* USER CODE END USART2_MspInit 1 */
 126:Core/Src/usart.c ****   }
 127:Core/Src/usart.c **** }
 224              		.loc 1 127 1 view .LVU64
 225 001e 0AB0     		add	sp, sp, #40
 226              		@ sp needed
 227              	.LVL7:
 228              		.loc 1 127 1 view .LVU65
 229 0020 10BD     		pop	{r4, pc}
 230              	.LVL8:
 231              	.L14:
  83:Core/Src/usart.c **** 
 232              		.loc 1 83 5 is_stmt 1 view .LVU66
 233              	.LBB2:
  83:Core/Src/usart.c **** 
 234              		.loc 1 83 5 view .LVU67
  83:Core/Src/usart.c **** 
 235              		.loc 1 83 5 view .LVU68
 236 0022 284B     		ldr	r3, .L16+8
 237 0024 9969     		ldr	r1, [r3, #24]
 238 0026 8020     		movs	r0, #128
 239 0028 C001     		lsls	r0, r0, #7
 240 002a 0143     		orrs	r1, r0
 241 002c 9961     		str	r1, [r3, #24]
  83:Core/Src/usart.c **** 
 242              		.loc 1 83 5 view .LVU69
 243 002e 9A69     		ldr	r2, [r3, #24]
 244 0030 0240     		ands	r2, r0
 245 0032 0192     		str	r2, [sp, #4]
  83:Core/Src/usart.c **** 
 246              		.loc 1 83 5 view .LVU70
 247 0034 019A     		ldr	r2, [sp, #4]
 248              	.LBE2:
  83:Core/Src/usart.c **** 
 249              		.loc 1 83 5 view .LVU71
  85:Core/Src/usart.c ****     /**USART1 GPIO Configuration
 250              		.loc 1 85 5 view .LVU72
 251              	.LBB3:
  85:Core/Src/usart.c ****     /**USART1 GPIO Configuration
 252              		.loc 1 85 5 view .LVU73
  85:Core/Src/usart.c ****     /**USART1 GPIO Configuration
 253              		.loc 1 85 5 view .LVU74
 254 0036 5A69     		ldr	r2, [r3, #20]
 255 0038 8021     		movs	r1, #128
 256 003a 8902     		lsls	r1, r1, #10
 257 003c 0A43     		orrs	r2, r1
 258 003e 5A61     		str	r2, [r3, #20]
  85:Core/Src/usart.c ****     /**USART1 GPIO Configuration
 259              		.loc 1 85 5 view .LVU75
 260 0040 5B69     		ldr	r3, [r3, #20]
 261 0042 0B40     		ands	r3, r1
 262 0044 0293     		str	r3, [sp, #8]
  85:Core/Src/usart.c ****     /**USART1 GPIO Configuration
 263              		.loc 1 85 5 view .LVU76
 264 0046 029B     		ldr	r3, [sp, #8]
ARM GAS  C:\Users\PIERRE~1\AppData\Local\Temp\ccrOpoi0.s 			page 8


 265              	.LBE3:
  85:Core/Src/usart.c ****     /**USART1 GPIO Configuration
 266              		.loc 1 85 5 view .LVU77
  89:Core/Src/usart.c ****     GPIO_InitStruct.Mode = GPIO_MODE_AF_OD;
 267              		.loc 1 89 5 view .LVU78
  89:Core/Src/usart.c ****     GPIO_InitStruct.Mode = GPIO_MODE_AF_OD;
 268              		.loc 1 89 25 is_stmt 0 view .LVU79
 269 0048 8023     		movs	r3, #128
 270 004a 9B00     		lsls	r3, r3, #2
 271 004c 0593     		str	r3, [sp, #20]
  90:Core/Src/usart.c ****     GPIO_InitStruct.Pull = GPIO_PULLUP;
 272              		.loc 1 90 5 is_stmt 1 view .LVU80
  90:Core/Src/usart.c ****     GPIO_InitStruct.Pull = GPIO_PULLUP;
 273              		.loc 1 90 26 is_stmt 0 view .LVU81
 274 004e EF3B     		subs	r3, r3, #239
 275 0050 FF3B     		subs	r3, r3, #255
 276 0052 0693     		str	r3, [sp, #24]
  91:Core/Src/usart.c ****     GPIO_InitStruct.Speed = GPIO_SPEED_FREQ_HIGH;
 277              		.loc 1 91 5 is_stmt 1 view .LVU82
  91:Core/Src/usart.c ****     GPIO_InitStruct.Speed = GPIO_SPEED_FREQ_HIGH;
 278              		.loc 1 91 26 is_stmt 0 view .LVU83
 279 0054 113B     		subs	r3, r3, #17
 280 0056 0793     		str	r3, [sp, #28]
  92:Core/Src/usart.c ****     GPIO_InitStruct.Alternate = GPIO_AF1_USART1;
 281              		.loc 1 92 5 is_stmt 1 view .LVU84
  92:Core/Src/usart.c ****     GPIO_InitStruct.Alternate = GPIO_AF1_USART1;
 282              		.loc 1 92 27 is_stmt 0 view .LVU85
 283 0058 0322     		movs	r2, #3
 284 005a 0892     		str	r2, [sp, #32]
  93:Core/Src/usart.c ****     HAL_GPIO_Init(GPIOA, &GPIO_InitStruct);
 285              		.loc 1 93 5 is_stmt 1 view .LVU86
  93:Core/Src/usart.c ****     HAL_GPIO_Init(GPIOA, &GPIO_InitStruct);
 286              		.loc 1 93 31 is_stmt 0 view .LVU87
 287 005c 0993     		str	r3, [sp, #36]
  94:Core/Src/usart.c **** 
 288              		.loc 1 94 5 is_stmt 1 view .LVU88
 289 005e 9020     		movs	r0, #144
 290 0060 05A9     		add	r1, sp, #20
 291 0062 C005     		lsls	r0, r0, #23
 292 0064 FFF7FEFF 		bl	HAL_GPIO_Init
 293              	.LVL9:
  97:Core/Src/usart.c ****     HAL_NVIC_EnableIRQ(USART1_IRQn);
 294              		.loc 1 97 5 view .LVU89
 295 0068 0022     		movs	r2, #0
 296 006a 0021     		movs	r1, #0
 297 006c 1B20     		movs	r0, #27
 298 006e FFF7FEFF 		bl	HAL_NVIC_SetPriority
 299              	.LVL10:
  98:Core/Src/usart.c ****   /* USER CODE BEGIN USART1_MspInit 1 */
 300              		.loc 1 98 5 view .LVU90
 301 0072 1B20     		movs	r0, #27
 302 0074 FFF7FEFF 		bl	HAL_NVIC_EnableIRQ
 303              	.LVL11:
 304 0078 D1E7     		b	.L11
 305              	.L15:
 109:Core/Src/usart.c **** 
 306              		.loc 1 109 5 view .LVU91
ARM GAS  C:\Users\PIERRE~1\AppData\Local\Temp\ccrOpoi0.s 			page 9


 307              	.LBB4:
 109:Core/Src/usart.c **** 
 308              		.loc 1 109 5 view .LVU92
 109:Core/Src/usart.c **** 
 309              		.loc 1 109 5 view .LVU93
 310 007a 124B     		ldr	r3, .L16+8
 311 007c D969     		ldr	r1, [r3, #28]
 312 007e 8022     		movs	r2, #128
 313 0080 9202     		lsls	r2, r2, #10
 314 0082 1143     		orrs	r1, r2
 315 0084 D961     		str	r1, [r3, #28]
 109:Core/Src/usart.c **** 
 316              		.loc 1 109 5 view .LVU94
 317 0086 D969     		ldr	r1, [r3, #28]
 318 0088 1140     		ands	r1, r2
 319 008a 0391     		str	r1, [sp, #12]
 109:Core/Src/usart.c **** 
 320              		.loc 1 109 5 view .LVU95
 321 008c 0399     		ldr	r1, [sp, #12]
 322              	.LBE4:
 109:Core/Src/usart.c **** 
 323              		.loc 1 109 5 view .LVU96
 111:Core/Src/usart.c ****     /**USART2 GPIO Configuration
 324              		.loc 1 111 5 view .LVU97
 325              	.LBB5:
 111:Core/Src/usart.c ****     /**USART2 GPIO Configuration
 326              		.loc 1 111 5 view .LVU98
 111:Core/Src/usart.c ****     /**USART2 GPIO Configuration
 327              		.loc 1 111 5 view .LVU99
 328 008e 5969     		ldr	r1, [r3, #20]
 329 0090 1143     		orrs	r1, r2
 330 0092 5961     		str	r1, [r3, #20]
 111:Core/Src/usart.c ****     /**USART2 GPIO Configuration
 331              		.loc 1 111 5 view .LVU100
 332 0094 5B69     		ldr	r3, [r3, #20]
 333 0096 1A40     		ands	r2, r3
 334 0098 0492     		str	r2, [sp, #16]
 111:Core/Src/usart.c ****     /**USART2 GPIO Configuration
 335              		.loc 1 111 5 view .LVU101
 336 009a 049B     		ldr	r3, [sp, #16]
 337              	.LBE5:
 111:Core/Src/usart.c ****     /**USART2 GPIO Configuration
 338              		.loc 1 111 5 view .LVU102
 116:Core/Src/usart.c ****     GPIO_InitStruct.Mode = GPIO_MODE_AF_PP;
 339              		.loc 1 116 5 view .LVU103
 116:Core/Src/usart.c ****     GPIO_InitStruct.Mode = GPIO_MODE_AF_PP;
 340              		.loc 1 116 25 is_stmt 0 view .LVU104
 341 009c 0A4B     		ldr	r3, .L16+12
 342 009e 0593     		str	r3, [sp, #20]
 117:Core/Src/usart.c ****     GPIO_InitStruct.Pull = GPIO_NOPULL;
 343              		.loc 1 117 5 is_stmt 1 view .LVU105
 117:Core/Src/usart.c ****     GPIO_InitStruct.Pull = GPIO_NOPULL;
 344              		.loc 1 117 26 is_stmt 0 view .LVU106
 345 00a0 0223     		movs	r3, #2
 346 00a2 0693     		str	r3, [sp, #24]
 118:Core/Src/usart.c ****     GPIO_InitStruct.Speed = GPIO_SPEED_FREQ_HIGH;
 347              		.loc 1 118 5 is_stmt 1 view .LVU107
ARM GAS  C:\Users\PIERRE~1\AppData\Local\Temp\ccrOpoi0.s 			page 10


 118:Core/Src/usart.c ****     GPIO_InitStruct.Speed = GPIO_SPEED_FREQ_HIGH;
 348              		.loc 1 118 26 is_stmt 0 view .LVU108
 349 00a4 0023     		movs	r3, #0
 350 00a6 0793     		str	r3, [sp, #28]
 119:Core/Src/usart.c ****     GPIO_InitStruct.Alternate = GPIO_AF1_USART2;
 351              		.loc 1 119 5 is_stmt 1 view .LVU109
 119:Core/Src/usart.c ****     GPIO_InitStruct.Alternate = GPIO_AF1_USART2;
 352              		.loc 1 119 27 is_stmt 0 view .LVU110
 353 00a8 0333     		adds	r3, r3, #3
 354 00aa 0893     		str	r3, [sp, #32]
 120:Core/Src/usart.c ****     HAL_GPIO_Init(GPIOA, &GPIO_InitStruct);
 355              		.loc 1 120 5 is_stmt 1 view .LVU111
 120:Core/Src/usart.c ****     HAL_GPIO_Init(GPIOA, &GPIO_InitStruct);
 356              		.loc 1 120 31 is_stmt 0 view .LVU112
 357 00ac 023B     		subs	r3, r3, #2
 358 00ae 0993     		str	r3, [sp, #36]
 121:Core/Src/usart.c **** 
 359              		.loc 1 121 5 is_stmt 1 view .LVU113
 360 00b0 9020     		movs	r0, #144
 361 00b2 05A9     		add	r1, sp, #20
 362 00b4 C005     		lsls	r0, r0, #23
 363 00b6 FFF7FEFF 		bl	HAL_GPIO_Init
 364              	.LVL12:
 365              		.loc 1 127 1 is_stmt 0 view .LVU114
 366 00ba B0E7     		b	.L11
 367              	.L17:
 368              		.align	2
 369              	.L16:
 370 00bc 00380140 		.word	1073821696
 371 00c0 00440040 		.word	1073759232
 372 00c4 00100240 		.word	1073876992
 373 00c8 04800000 		.word	32772
 374              		.cfi_endproc
 375              	.LFE45:
 377              		.section	.text.HAL_UART_MspDeInit,"ax",%progbits
 378              		.align	1
 379              		.global	HAL_UART_MspDeInit
 380              		.syntax unified
 381              		.code	16
 382              		.thumb_func
 383              		.fpu softvfp
 385              	HAL_UART_MspDeInit:
 386              	.LVL13:
 387              	.LFB46:
 128:Core/Src/usart.c **** 
 129:Core/Src/usart.c **** void HAL_UART_MspDeInit(UART_HandleTypeDef* uartHandle)
 130:Core/Src/usart.c **** {
 388              		.loc 1 130 1 is_stmt 1 view -0
 389              		.cfi_startproc
 390              		@ args = 0, pretend = 0, frame = 0
 391              		@ frame_needed = 0, uses_anonymous_args = 0
 392              		.loc 1 130 1 is_stmt 0 view .LVU116
 393 0000 10B5     		push	{r4, lr}
 394              	.LCFI4:
 395              		.cfi_def_cfa_offset 8
 396              		.cfi_offset 4, -8
 397              		.cfi_offset 14, -4
ARM GAS  C:\Users\PIERRE~1\AppData\Local\Temp\ccrOpoi0.s 			page 11


 131:Core/Src/usart.c **** 
 132:Core/Src/usart.c ****   if(uartHandle->Instance==USART1)
 398              		.loc 1 132 3 is_stmt 1 view .LVU117
 399              		.loc 1 132 16 is_stmt 0 view .LVU118
 400 0002 0368     		ldr	r3, [r0]
 401              		.loc 1 132 5 view .LVU119
 402 0004 104A     		ldr	r2, .L23
 403 0006 9342     		cmp	r3, r2
 404 0008 03D0     		beq	.L21
 133:Core/Src/usart.c ****   {
 134:Core/Src/usart.c ****   /* USER CODE BEGIN USART1_MspDeInit 0 */
 135:Core/Src/usart.c **** 
 136:Core/Src/usart.c ****   /* USER CODE END USART1_MspDeInit 0 */
 137:Core/Src/usart.c ****     /* Peripheral clock disable */
 138:Core/Src/usart.c ****     __HAL_RCC_USART1_CLK_DISABLE();
 139:Core/Src/usart.c **** 
 140:Core/Src/usart.c ****     /**USART1 GPIO Configuration
 141:Core/Src/usart.c ****     PA9     ------> USART1_TX
 142:Core/Src/usart.c ****     */
 143:Core/Src/usart.c ****     HAL_GPIO_DeInit(GPIOA, GPIO_PIN_9);
 144:Core/Src/usart.c **** 
 145:Core/Src/usart.c ****     /* USART1 interrupt Deinit */
 146:Core/Src/usart.c ****     HAL_NVIC_DisableIRQ(USART1_IRQn);
 147:Core/Src/usart.c ****   /* USER CODE BEGIN USART1_MspDeInit 1 */
 148:Core/Src/usart.c **** 
 149:Core/Src/usart.c ****   /* USER CODE END USART1_MspDeInit 1 */
 150:Core/Src/usart.c ****   }
 151:Core/Src/usart.c ****   else if(uartHandle->Instance==USART2)
 405              		.loc 1 151 8 is_stmt 1 view .LVU120
 406              		.loc 1 151 10 is_stmt 0 view .LVU121
 407 000a 104A     		ldr	r2, .L23+4
 408 000c 9342     		cmp	r3, r2
 409 000e 0FD0     		beq	.L22
 410              	.LVL14:
 411              	.L18:
 152:Core/Src/usart.c ****   {
 153:Core/Src/usart.c ****   /* USER CODE BEGIN USART2_MspDeInit 0 */
 154:Core/Src/usart.c **** 
 155:Core/Src/usart.c ****   /* USER CODE END USART2_MspDeInit 0 */
 156:Core/Src/usart.c ****     /* Peripheral clock disable */
 157:Core/Src/usart.c ****     __HAL_RCC_USART2_CLK_DISABLE();
 158:Core/Src/usart.c **** 
 159:Core/Src/usart.c ****     /**USART2 GPIO Configuration
 160:Core/Src/usart.c ****     PA2     ------> USART2_TX
 161:Core/Src/usart.c ****     PA15     ------> USART2_RX
 162:Core/Src/usart.c ****     */
 163:Core/Src/usart.c ****     HAL_GPIO_DeInit(GPIOA, VCP_TX_Pin|VCP_RX_Pin);
 164:Core/Src/usart.c **** 
 165:Core/Src/usart.c ****   /* USER CODE BEGIN USART2_MspDeInit 1 */
 166:Core/Src/usart.c **** 
 167:Core/Src/usart.c ****   /* USER CODE END USART2_MspDeInit 1 */
 168:Core/Src/usart.c ****   }
 169:Core/Src/usart.c **** }
 412              		.loc 1 169 1 view .LVU122
 413              		@ sp needed
 414 0010 10BD     		pop	{r4, pc}
 415              	.LVL15:
ARM GAS  C:\Users\PIERRE~1\AppData\Local\Temp\ccrOpoi0.s 			page 12


 416              	.L21:
 138:Core/Src/usart.c **** 
 417              		.loc 1 138 5 is_stmt 1 view .LVU123
 418 0012 0F4A     		ldr	r2, .L23+8
 419 0014 9369     		ldr	r3, [r2, #24]
 420 0016 0F49     		ldr	r1, .L23+12
 421 0018 0B40     		ands	r3, r1
 422 001a 9361     		str	r3, [r2, #24]
 143:Core/Src/usart.c **** 
 423              		.loc 1 143 5 view .LVU124
 424 001c 8021     		movs	r1, #128
 425 001e 9020     		movs	r0, #144
 426              	.LVL16:
 143:Core/Src/usart.c **** 
 427              		.loc 1 143 5 is_stmt 0 view .LVU125
 428 0020 8900     		lsls	r1, r1, #2
 429 0022 C005     		lsls	r0, r0, #23
 430 0024 FFF7FEFF 		bl	HAL_GPIO_DeInit
 431              	.LVL17:
 146:Core/Src/usart.c ****   /* USER CODE BEGIN USART1_MspDeInit 1 */
 432              		.loc 1 146 5 is_stmt 1 view .LVU126
 433 0028 1B20     		movs	r0, #27
 434 002a FFF7FEFF 		bl	HAL_NVIC_DisableIRQ
 435              	.LVL18:
 436 002e EFE7     		b	.L18
 437              	.LVL19:
 438              	.L22:
 157:Core/Src/usart.c **** 
 439              		.loc 1 157 5 view .LVU127
 440 0030 074A     		ldr	r2, .L23+8
 441 0032 D369     		ldr	r3, [r2, #28]
 442 0034 0849     		ldr	r1, .L23+16
 443 0036 0B40     		ands	r3, r1
 444 0038 D361     		str	r3, [r2, #28]
 163:Core/Src/usart.c **** 
 445              		.loc 1 163 5 view .LVU128
 446 003a 9020     		movs	r0, #144
 447              	.LVL20:
 163:Core/Src/usart.c **** 
 448              		.loc 1 163 5 is_stmt 0 view .LVU129
 449 003c 0749     		ldr	r1, .L23+20
 450 003e C005     		lsls	r0, r0, #23
 451 0040 FFF7FEFF 		bl	HAL_GPIO_DeInit
 452              	.LVL21:
 453              		.loc 1 169 1 view .LVU130
 454 0044 E4E7     		b	.L18
 455              	.L24:
 456 0046 C046     		.align	2
 457              	.L23:
 458 0048 00380140 		.word	1073821696
 459 004c 00440040 		.word	1073759232
 460 0050 00100240 		.word	1073876992
 461 0054 FFBFFFFF 		.word	-16385
 462 0058 FFFFFDFF 		.word	-131073
 463 005c 04800000 		.word	32772
 464              		.cfi_endproc
 465              	.LFE46:
ARM GAS  C:\Users\PIERRE~1\AppData\Local\Temp\ccrOpoi0.s 			page 13


 467              		.comm	huart2,132,4
 468              		.comm	huart1,132,4
 469              		.text
 470              	.Letext0:
 471              		.file 2 "c:\\users\\pierre-anthony\\.vscode\\extensions\\buzzyelectronics.stm-helper-1.2.9\\armgcc
 472              		.file 3 "c:\\users\\pierre-anthony\\.vscode\\extensions\\buzzyelectronics.stm-helper-1.2.9\\armgcc
 473              		.file 4 "Drivers/CMSIS/Device/ST/STM32F0xx/Include/system_stm32f0xx.h"
 474              		.file 5 "Drivers/CMSIS/Device/ST/STM32F0xx/Include/stm32f042x6.h"
 475              		.file 6 "Drivers/STM32F0xx_HAL_Driver/Inc/stm32f0xx_hal_def.h"
 476              		.file 7 "Drivers/STM32F0xx_HAL_Driver/Inc/stm32f0xx_hal_gpio.h"
 477              		.file 8 "Drivers/STM32F0xx_HAL_Driver/Inc/stm32f0xx_hal_dma.h"
 478              		.file 9 "Drivers/STM32F0xx_HAL_Driver/Inc/stm32f0xx_hal_uart.h"
 479              		.file 10 "Drivers/STM32F0xx_HAL_Driver/Inc/stm32f0xx_hal.h"
 480              		.file 11 "c:\\users\\pierre-anthony\\.vscode\\extensions\\buzzyelectronics.stm-helper-1.2.9\\armgc
 481              		.file 12 "c:\\users\\pierre-anthony\\.vscode\\extensions\\buzzyelectronics.stm-helper-1.2.9\\armgc
 482              		.file 13 "c:\\users\\pierre-anthony\\.vscode\\extensions\\buzzyelectronics.stm-helper-1.2.9\\armgc
 483              		.file 14 "c:\\users\\pierre-anthony\\.vscode\\extensions\\buzzyelectronics.stm-helper-1.2.9\\armgc
 484              		.file 15 "Core/Inc/servo_control.h"
 485              		.file 16 "Core/Inc/usart.h"
 486              		.file 17 "Drivers/STM32F0xx_HAL_Driver/Inc/stm32f0xx_hal_cortex.h"
 487              		.file 18 "Core/Inc/main.h"
 488              		.file 19 "<built-in>"
ARM GAS  C:\Users\PIERRE~1\AppData\Local\Temp\ccrOpoi0.s 			page 14

